target datalayout = "e-m:e-p270:32:32-p271:32:32-p272:64:64-i64:64-i128:128-f80:128-n8:16:32:64-S128"
target triple = "x86_64-pc-linux-gnu"

%struct._typeobject = type { %struct.PyVarObject, ptr, i64, i64, ptr, i64, ptr, ptr, ptr, ptr, ptr, ptr, ptr, ptr, ptr, ptr, ptr, ptr, ptr, i64, ptr, ptr, ptr, ptr, i64, ptr, ptr, ptr, ptr, ptr, ptr, ptr, ptr, ptr, i64, ptr, ptr, ptr, ptr, ptr, ptr, ptr, ptr, ptr, ptr, ptr, i32, ptr, ptr, i8, i16 }
%struct.PyVarObject = type { %struct._object, i64 }
%struct._object = type { %union.anon, ptr }
%union.anon = type { i64 }
%struct._longobject = type { %struct._object, %struct._PyLongValue }
%struct._PyLongValue = type { i64, [1 x i32] }
%struct.PyTupleObject = type { %struct.PyVarObject, [1 x ptr] }

@_Py_NotImplementedStruct = external global %struct._object, align 8
@_Py_TrueStruct = external global %struct._longobject, align 8
@_Py_FalseStruct = external global %struct._longobject, align 8

; Function Attrs: inlinehint nounwind uwtable
define internal i64 @Py_SIZE(ptr noundef %0) #2 {
  %2 = alloca ptr, align 8
  store ptr %0, ptr %2, align 8, !tbaa !10
  %3 = load ptr, ptr %2, align 8, !tbaa !10
  %4 = getelementptr inbounds nuw %struct.PyVarObject, ptr %3, i32 0, i32 1
  %5 = load i64, ptr %4, align 8, !tbaa !108
  ret i64 %5
}

; Function Attrs: inlinehint nounwind uwtable
define internal i32 @PyType_HasFeature(ptr noundef %0, i64 noundef %1) #2 {
  %3 = alloca ptr, align 8
  %4 = alloca i64, align 8
  %5 = alloca i64, align 8
  store ptr %0, ptr %3, align 8, !tbaa !99
  store i64 %1, ptr %4, align 8, !tbaa !4
  call void @llvm.lifetime.start.p0(i64 8, ptr %5) #9
  %6 = load ptr, ptr %3, align 8, !tbaa !99
  %7 = getelementptr inbounds nuw %struct._typeobject, ptr %6, i32 0, i32 19
  %8 = load i64, ptr %7, align 8, !tbaa !100
  store i64 %8, ptr %5, align 8, !tbaa !4
  %9 = load i64, ptr %5, align 8, !tbaa !4
  %10 = load i64, ptr %4, align 8, !tbaa !4
  %11 = and i64 %9, %10
  %12 = icmp ne i64 %11, 0
  %13 = zext i1 %12 to i32
  call void @llvm.lifetime.end.p0(i64 8, ptr %5) #9
  ret i32 %13
}

; Function Attrs: inlinehint nounwind uwtable
define internal ptr @_Py_TYPE(ptr noundef %0) #2 {
  %2 = alloca ptr, align 8
  store ptr %0, ptr %2, align 8, !tbaa !10
  %3 = load ptr, ptr %2, align 8, !tbaa !10
  %4 = getelementptr inbounds nuw %struct._object, ptr %3, i32 0, i32 1
  %5 = load ptr, ptr %4, align 8, !tbaa !107
  ret ptr %5
}

; Function Attrs: nounwind uwtable
define internal ptr @tuple_richcompare(ptr noundef %0, ptr noundef %1, i32 noundef %2) #0 {
  %4 = alloca ptr, align 8
  %5 = alloca ptr, align 8
  %6 = alloca ptr, align 8
  %7 = alloca i32, align 4
  %8 = alloca ptr, align 8
  %9 = alloca ptr, align 8
  %10 = alloca i64, align 8
  %11 = alloca i64, align 8
  %12 = alloca i64, align 8
  %13 = alloca i32, align 4
  %14 = alloca i32, align 4
  store ptr %0, ptr %5, align 8, !tbaa !10
  store ptr %1, ptr %6, align 8, !tbaa !10
  store i32 %2, ptr %7, align 4, !tbaa !125
  call void @llvm.lifetime.start.p0(i64 8, ptr %8) #9
  call void @llvm.lifetime.start.p0(i64 8, ptr %9) #9
  call void @llvm.lifetime.start.p0(i64 8, ptr %10) #9
  call void @llvm.lifetime.start.p0(i64 8, ptr %11) #9
  call void @llvm.lifetime.start.p0(i64 8, ptr %12) #9
  %15 = load ptr, ptr %5, align 8, !tbaa !10
  %16 = call ptr @_Py_TYPE(ptr noundef %15)
  %17 = call i32 @PyType_HasFeature(ptr noundef %16, i64 noundef 67108864)
  %18 = icmp ne i32 %17, 0
  br i1 %18, label %19, label %24

19:                                               ; preds = %3
  %20 = load ptr, ptr %6, align 8, !tbaa !10
  %21 = call ptr @_Py_TYPE(ptr noundef %20)
  %22 = call i32 @PyType_HasFeature(ptr noundef %21, i64 noundef 67108864)
  %23 = icmp ne i32 %22, 0
  br i1 %23, label %25, label %24

24:                                               ; preds = %19, %3
  store ptr @_Py_NotImplementedStruct, ptr %4, align 8
  store i32 1, ptr %13, align 4
  br label %139

25:                                               ; preds = %19
  %26 = load ptr, ptr %5, align 8, !tbaa !10
  store ptr %26, ptr %8, align 8, !tbaa !8
  %27 = load ptr, ptr %6, align 8, !tbaa !10
  store ptr %27, ptr %9, align 8, !tbaa !8
  %28 = load ptr, ptr %8, align 8, !tbaa !8
  %29 = call i64 @Py_SIZE(ptr noundef %28)
  store i64 %29, ptr %11, align 8, !tbaa !4
  %30 = load ptr, ptr %9, align 8, !tbaa !8
  %31 = call i64 @Py_SIZE(ptr noundef %30)
  store i64 %31, ptr %12, align 8, !tbaa !4
  store i64 0, ptr %10, align 8, !tbaa !4
  br label %32

32:                                               ; preds = %65, %25
  %33 = load i64, ptr %10, align 8, !tbaa !4
  %34 = load i64, ptr %11, align 8, !tbaa !4
  %35 = icmp slt i64 %33, %34
  br i1 %35, label %36, label %40

36:                                               ; preds = %32
  %37 = load i64, ptr %10, align 8, !tbaa !4
  %38 = load i64, ptr %12, align 8, !tbaa !4
  %39 = icmp slt i64 %37, %38
  br label %40

40:                                               ; preds = %36, %32
  %41 = phi i1 [ false, %32 ], [ %39, %36 ]
  br i1 %41, label %42, label %68

42:                                               ; preds = %40
  call void @llvm.lifetime.start.p0(i64 4, ptr %14) #9
  %43 = load ptr, ptr %8, align 8, !tbaa !8
  %44 = getelementptr inbounds nuw %struct.PyTupleObject, ptr %43, i32 0, i32 1
  %45 = load i64, ptr %10, align 8, !tbaa !4
  %46 = getelementptr [1 x ptr], ptr %44, i64 0, i64 %45
  %47 = load ptr, ptr %46, align 8, !tbaa !10
  %48 = load ptr, ptr %9, align 8, !tbaa !8
  %49 = getelementptr inbounds nuw %struct.PyTupleObject, ptr %48, i32 0, i32 1
  %50 = load i64, ptr %10, align 8, !tbaa !4
  %51 = getelementptr [1 x ptr], ptr %49, i64 0, i64 %50
  %52 = load ptr, ptr %51, align 8, !tbaa !10
  %53 = call i32 @PyObject_RichCompareBool(ptr noundef %47, ptr noundef %52, i32 noundef 2)
  store i32 %53, ptr %14, align 4, !tbaa !125
  %54 = load i32, ptr %14, align 4, !tbaa !125
  %55 = icmp slt i32 %54, 0
  br i1 %55, label %56, label %57

56:                                               ; preds = %42
  store ptr null, ptr %4, align 8
  store i32 1, ptr %13, align 4
  br label %62

57:                                               ; preds = %42
  %58 = load i32, ptr %14, align 4, !tbaa !125
  %59 = icmp ne i32 %58, 0
  br i1 %59, label %61, label %60

60:                                               ; preds = %57
  store i32 2, ptr %13, align 4
  br label %62

61:                                               ; preds = %57
  store i32 0, ptr %13, align 4
  br label %62

62:                                               ; preds = %61, %60, %56
  call void @llvm.lifetime.end.p0(i64 4, ptr %14) #9
  %63 = load i32, ptr %13, align 4
  switch i32 %63, label %139 [
    i32 0, label %64
    i32 2, label %68
  ]

64:                                               ; preds = %62
  br label %65

65:                                               ; preds = %64
  %66 = load i64, ptr %10, align 8, !tbaa !4
  %67 = add i64 %66, 1
  store i64 %67, ptr %10, align 8, !tbaa !4
  br label %32, !llvm.loop !131

68:                                               ; preds = %62, %40
  %69 = load i64, ptr %10, align 8, !tbaa !4
  %70 = load i64, ptr %11, align 8, !tbaa !4
  %71 = icmp sge i64 %69, %70
  br i1 %71, label %76, label %72

72:                                               ; preds = %68
  %73 = load i64, ptr %10, align 8, !tbaa !4
  %74 = load i64, ptr %12, align 8, !tbaa !4
  %75 = icmp sge i64 %73, %74
  br i1 %75, label %76, label %118

76:                                               ; preds = %72, %68
  br label %77

77:                                               ; preds = %76
  %78 = load i32, ptr %7, align 4, !tbaa !125
  switch i32 %78, label %115 [
    i32 2, label %79
    i32 3, label %85
    i32 0, label %91
    i32 4, label %97
    i32 1, label %103
    i32 5, label %109
  ]

79:                                               ; preds = %77
  %80 = load i64, ptr %11, align 8, !tbaa !4
  %81 = load i64, ptr %12, align 8, !tbaa !4
  %82 = icmp eq i64 %80, %81
  br i1 %82, label %83, label %84

83:                                               ; preds = %79
  store ptr @_Py_TrueStruct, ptr %4, align 8
  store i32 1, ptr %13, align 4
  br label %139

84:                                               ; preds = %79
  store ptr @_Py_FalseStruct, ptr %4, align 8
  store i32 1, ptr %13, align 4
  br label %139

85:                                               ; preds = %77
  %86 = load i64, ptr %11, align 8, !tbaa !4
  %87 = load i64, ptr %12, align 8, !tbaa !4
  %88 = icmp ne i64 %86, %87
  br i1 %88, label %89, label %90

89:                                               ; preds = %85
  store ptr @_Py_TrueStruct, ptr %4, align 8
  store i32 1, ptr %13, align 4
  br label %139

90:                                               ; preds = %85
  store ptr @_Py_FalseStruct, ptr %4, align 8
  store i32 1, ptr %13, align 4
  br label %139

91:                                               ; preds = %77
  %92 = load i64, ptr %11, align 8, !tbaa !4
  %93 = load i64, ptr %12, align 8, !tbaa !4
  %94 = icmp slt i64 %92, %93
  br i1 %94, label %95, label %96

95:                                               ; preds = %91
  store ptr @_Py_TrueStruct, ptr %4, align 8
  store i32 1, ptr %13, align 4
  br label %139

96:                                               ; preds = %91
  store ptr @_Py_FalseStruct, ptr %4, align 8
  store i32 1, ptr %13, align 4
  br label %139

97:                                               ; preds = %77
  %98 = load i64, ptr %11, align 8, !tbaa !4
  %99 = load i64, ptr %12, align 8, !tbaa !4
  %100 = icmp sgt i64 %98, %99
  br i1 %100, label %101, label %102

101:                                              ; preds = %97
  store ptr @_Py_TrueStruct, ptr %4, align 8
  store i32 1, ptr %13, align 4
  br label %139

102:                                              ; preds = %97
  store ptr @_Py_FalseStruct, ptr %4, align 8
  store i32 1, ptr %13, align 4
  br label %139

103:                                              ; preds = %77
  %104 = load i64, ptr %11, align 8, !tbaa !4
  %105 = load i64, ptr %12, align 8, !tbaa !4
  %106 = icmp sle i64 %104, %105
  br i1 %106, label %107, label %108

107:                                              ; preds = %103
  store ptr @_Py_TrueStruct, ptr %4, align 8
  store i32 1, ptr %13, align 4
  br label %139

108:                                              ; preds = %103
  store ptr @_Py_FalseStruct, ptr %4, align 8
  store i32 1, ptr %13, align 4
  br label %139

109:                                              ; preds = %77
  %110 = load i64, ptr %11, align 8, !tbaa !4
  %111 = load i64, ptr %12, align 8, !tbaa !4
  %112 = icmp sge i64 %110, %111
  br i1 %112, label %113, label %114

113:                                              ; preds = %109
  store ptr @_Py_TrueStruct, ptr %4, align 8
  store i32 1, ptr %13, align 4
  br label %139

114:                                              ; preds = %109
  store ptr @_Py_FalseStruct, ptr %4, align 8
  store i32 1, ptr %13, align 4
  br label %139

115:                                              ; preds = %77
  unreachable

116:                                              ; No predecessors!
  br label %117

117:                                              ; preds = %116
  br label %118

118:                                              ; preds = %117, %72
  %119 = load i32, ptr %7, align 4, !tbaa !125
  %120 = icmp eq i32 %119, 2
  br i1 %120, label %121, label %122

121:                                              ; preds = %118
  store ptr @_Py_FalseStruct, ptr %4, align 8
  store i32 1, ptr %13, align 4
  br label %139

122:                                              ; preds = %118
  %123 = load i32, ptr %7, align 4, !tbaa !125
  %124 = icmp eq i32 %123, 3
  br i1 %124, label %125, label %126

125:                                              ; preds = %122
  store ptr @_Py_TrueStruct, ptr %4, align 8
  store i32 1, ptr %13, align 4
  br label %139

126:                                              ; preds = %122
  %127 = load ptr, ptr %8, align 8, !tbaa !8
  %128 = getelementptr inbounds nuw %struct.PyTupleObject, ptr %127, i32 0, i32 1
  %129 = load i64, ptr %10, align 8, !tbaa !4
  %130 = getelementptr [1 x ptr], ptr %128, i64 0, i64 %129
  %131 = load ptr, ptr %130, align 8, !tbaa !10
  %132 = load ptr, ptr %9, align 8, !tbaa !8
  %133 = getelementptr inbounds nuw %struct.PyTupleObject, ptr %132, i32 0, i32 1
  %134 = load i64, ptr %10, align 8, !tbaa !4
  %135 = getelementptr [1 x ptr], ptr %133, i64 0, i64 %134
  %136 = load ptr, ptr %135, align 8, !tbaa !10
  %137 = load i32, ptr %7, align 4, !tbaa !125
  %138 = call ptr @PyObject_RichCompare(ptr noundef %131, ptr noundef %136, i32 noundef %137)
  store ptr %138, ptr %4, align 8
  store i32 1, ptr %13, align 4
  br label %139

139:                                              ; preds = %126, %125, %121, %114, %113, %108, %107, %102, %101, %96, %95, %90, %89, %84, %83, %62, %24
  call void @llvm.lifetime.end.p0(i64 8, ptr %12) #9
  call void @llvm.lifetime.end.p0(i64 8, ptr %11) #9
  call void @llvm.lifetime.end.p0(i64 8, ptr %10) #9
  call void @llvm.lifetime.end.p0(i64 8, ptr %9) #9
  call void @llvm.lifetime.end.p0(i64 8, ptr %8) #9
  %140 = load ptr, ptr %4, align 8
  ret ptr %140
}