; Function Attrs: nounwind uwtable
define internal ptr @tuple_richcompare(ptr noundef readonly captures(none) %0, ptr noundef readonly captures(none) %1, i32 noundef %2) #0 {
  %4 = getelementptr i8, ptr %0, i64 8
  %.val59 = load ptr, ptr %4, align 8, !tbaa !99
  %5 = getelementptr i8, ptr %.val59, i64 168
  %.val61 = load i64, ptr %5, align 8, !tbaa !100
  %6 = and i64 %.val61, 67108864
  %.not = icmp eq i64 %6, 0
  br i1 %.not, label %.loopexit, label %7

7:                                                ; preds = %3
  %8 = getelementptr i8, ptr %1, i64 8
  %.val58 = load ptr, ptr %8, align 8, !tbaa !99
  %9 = getelementptr i8, ptr %.val58, i64 168
  %.val60 = load i64, ptr %9, align 8, !tbaa !100
  %10 = and i64 %.val60, 67108864
  %.not46 = icmp eq i64 %10, 0
  br i1 %.not46, label %.loopexit, label %11

11:                                               ; preds = %7
  %12 = getelementptr i8, ptr %0, i64 16
  %.val57 = load i64, ptr %12, align 8, !tbaa !107
  %13 = getelementptr i8, ptr %1, i64 16
  %.val = load i64, ptr %13, align 8, !tbaa !107
  %.val.fr = freeze i64 %.val
  %invariant.smin = tail call i64 @llvm.smin.i64(i64 %.val57, i64 %.val.fr)
  %14 = icmp sgt i64 %invariant.smin, 0
  br i1 %14, label %.lr.ph, label %._crit_edge

.lr.ph:                                           ; preds = %11
  %15 = getelementptr inbounds nuw i8, ptr %0, i64 24
  %16 = getelementptr inbounds nuw i8, ptr %1, i64 24
  br label %17

17:                                               ; preds = %.lr.ph, %24
  %.04364 = phi i64 [ 0, %.lr.ph ], [ %25, %24 ]
  %18 = getelementptr [1 x ptr], ptr %15, i64 0, i64 %.04364
  %19 = load ptr, ptr %18, align 8, !tbaa !25
  %20 = getelementptr [1 x ptr], ptr %16, i64 0, i64 %.04364
  %21 = load ptr, ptr %20, align 8, !tbaa !25
  %22 = tail call i32 @PyObject_RichCompareBool(ptr noundef %19, ptr noundef %21, i32 noundef 2) #9
  %23 = icmp slt i32 %22, 0
  %.not47 = icmp eq i32 %22, 0
  %. = select i1 %.not47, i32 2, i32 0
  %.042 = select i1 %23, i32 1, i32 %.
  switch i32 %.042, label %.loopexit [
    i32 0, label %24
    i32 2, label %36
  ]

24:                                               ; preds = %17
  %25 = add nuw nsw i64 %.04364, 1
  %exitcond.not = icmp eq i64 %25, %invariant.smin
  br i1 %exitcond.not, label %._crit_edge, label %17, !llvm.loop !124

._crit_edge:                                      ; preds = %24, %11
  switch i32 %2, label %35 [
    i32 2, label %26
    i32 3, label %28
    i32 0, label %29
    i32 4, label %31
    i32 1, label %33
    i32 5, label %34
  ]

26:                                               ; preds = %._crit_edge
  %27 = icmp eq i64 %.val57, %.val.fr
  %_Py_TrueStruct._Py_FalseStruct = select i1 %27, ptr @_Py_TrueStruct, ptr @_Py_FalseStruct
  br label %.loopexit

28:                                               ; preds = %._crit_edge
  %.not52 = icmp eq i64 %.val57, %.val.fr
  %_Py_FalseStruct._Py_TrueStruct = select i1 %.not52, ptr @_Py_FalseStruct, ptr @_Py_TrueStruct
  br label %.loopexit

29:                                               ; preds = %._crit_edge
  %30 = icmp slt i64 %.val57, %.val.fr
  %_Py_TrueStruct._Py_FalseStruct53 = select i1 %30, ptr @_Py_TrueStruct, ptr @_Py_FalseStruct
  br label %.loopexit

31:                                               ; preds = %._crit_edge
  %32 = icmp sgt i64 %.val57, %.val.fr
  %_Py_TrueStruct._Py_FalseStruct54 = select i1 %32, ptr @_Py_TrueStruct, ptr @_Py_FalseStruct
  br label %.loopexit

33:                                               ; preds = %._crit_edge
  %.not51 = icmp sgt i64 %.val57, %.val.fr
  %_Py_FalseStruct._Py_TrueStruct55 = select i1 %.not51, ptr @_Py_FalseStruct, ptr @_Py_TrueStruct
  br label %.loopexit

34:                                               ; preds = %._crit_edge
  %.not50 = icmp slt i64 %.val57, %.val.fr
  %_Py_FalseStruct._Py_TrueStruct56 = select i1 %.not50, ptr @_Py_FalseStruct, ptr @_Py_TrueStruct
  br label %.loopexit

35:                                               ; preds = %._crit_edge
  unreachable

36:                                               ; preds = %17
  switch i32 %2, label %38 [
    i32 2, label %.loopexit
    i32 3, label %37
  ]

37:                                               ; preds = %36
  br label %.loopexit

38:                                               ; preds = %36
  %39 = getelementptr [1 x ptr], ptr %16, i64 0, i64 %.04364
  %40 = getelementptr [1 x ptr], ptr %15, i64 0, i64 %.04364
  %41 = load ptr, ptr %40, align 8, !tbaa !25
  %42 = load ptr, ptr %39, align 8, !tbaa !25
  %43 = tail call ptr @PyObject_RichCompare(ptr noundef %41, ptr noundef %42, i32 noundef %2) #9
  br label %.loopexit

.loopexit:                                        ; preds = %17, %36, %34, %33, %31, %29, %28, %26, %3, %7, %38, %37
  %.0 = phi ptr [ @_Py_TrueStruct, %37 ], [ %43, %38 ], [ @_Py_NotImplementedStruct, %7 ], [ @_Py_NotImplementedStruct, %3 ], [ %_Py_TrueStruct._Py_FalseStruct, %26 ], [ %_Py_FalseStruct._Py_TrueStruct, %28 ], [ %_Py_TrueStruct._Py_FalseStruct53, %29 ], [ %_Py_TrueStruct._Py_FalseStruct54, %31 ], [ %_Py_FalseStruct._Py_TrueStruct55, %33 ], [ %_Py_FalseStruct._Py_TrueStruct56, %34 ], [ @_Py_FalseStruct, %36 ], [ null, %17 ]
  ret ptr %.0
}